target datalayout = "e-m:e-p270:32:32-p271:32:32-p272:64:64-i64:64-i128:128-f80:128-n8:16:32:64-S128"
target triple = "x86_64-unknown-linux-gnu"

%"struct.icu_75::Norm" = type { ptr, ptr, i32, i32, i32, ptr, i8, i8, i8, i8, i8, i8, i32, i32, ptr }

@stderr = external global ptr, align 8
@.str.3 = private unnamed_addr constant [82 x i8] c"gennorm2 error: unexpected shared data for multiple code points U+%04lX..U+%04lX\0A\00", align 1
@.str.4 = private unnamed_addr constant [28 x i8] c"gennorm2 error: U+%04lX %s\0A\00", align 1

; Function Attrs: mustprogress uwtable
define dso_local void @_ZN6icu_759ExtraData12rangeHandlerEiiRNS_4NormE(ptr noundef nonnull align 8 dereferenceable(888) %this, i32 noundef %start, i32 noundef %end, ptr noundef nonnull align 8 dereferenceable(64) %norm) unnamed_addr #0 align 2 {
entry:
  %this.addr = alloca ptr, align 8
  %start.addr = alloca i32, align 4
  %end.addr = alloca i32, align 4
  %norm.addr = alloca ptr, align 8
  store ptr %this, ptr %this.addr, align 8
  store i32 %start, ptr %start.addr, align 4
  store i32 %end, ptr %end.addr, align 4
  store ptr %norm, ptr %norm.addr, align 8
  %this1 = load ptr, ptr %this.addr, align 8
  %0 = load i32, ptr %start.addr, align 4
  %1 = load i32, ptr %end.addr, align 4
  %cmp = icmp ne i32 %0, %1
  br i1 %cmp, label %if.then, label %if.end

if.then:                                          ; preds = %entry
  %2 = load ptr, ptr @stderr, align 8
  %3 = load i32, ptr %start.addr, align 4
  %conv = sext i32 %3 to i64
  %4 = load i32, ptr %end.addr, align 4
  %conv2 = sext i32 %4 to i64
  %call = call i32 (ptr, ptr, ...) @fprintf(ptr noundef %2, ptr noundef @.str.3, i64 noundef %conv, i64 noundef %conv2)
  call void @exit(i32 noundef 5) #8
  unreachable

if.end:                                           ; preds = %entry
  %5 = load ptr, ptr %norm.addr, align 8
  %error = getelementptr inbounds %"struct.icu_75::Norm", ptr %5, i32 0, i32 14
  %6 = load ptr, ptr %error, align 8
  %cmp3 = icmp ne ptr %6, null
  br i1 %cmp3, label %if.then4, label %if.end8

if.then4:                                         ; preds = %if.end
  %7 = load ptr, ptr @stderr, align 8
  %8 = load i32, ptr %start.addr, align 4
  %conv5 = sext i32 %8 to i64
  %9 = load ptr, ptr %norm.addr, align 8
  %error6 = getelementptr inbounds %"struct.icu_75::Norm", ptr %9, i32 0, i32 14
  %10 = load ptr, ptr %error6, align 8
  %call7 = call i32 (ptr, ptr, ...) @fprintf(ptr noundef %7, ptr noundef @.str.4, i64 noundef %conv5, ptr noundef %10)
  call void @exit(i32 noundef 3) #8
  unreachable

if.end8:                                          ; preds = %if.end
  %11 = load i32, ptr %start.addr, align 4
  %12 = load ptr, ptr %norm.addr, align 8
  call void @_ZN6icu_759ExtraData14writeExtraDataEiRNS_4NormE(ptr noundef nonnull align 8 dereferenceable(888) %this1, i32 noundef %11, ptr noundef nonnull align 8 dereferenceable(64) %12)
  ret void
}