; Function Attrs: mustprogress uwtable
define dso_local void @_ZN6icu_759ExtraData12rangeHandlerEiiRNS_4NormE(ptr noundef nonnull align 8 dereferenceable(888) %this, i32 noundef %start, i32 noundef %end, ptr nocapture noundef nonnull align 8 dereferenceable(64) %norm) unnamed_addr #0 align 2 {
entry:
  %cmp.not = icmp eq i32 %start, %end
  br i1 %cmp.not, label %if.end, label %if.then

if.then:                                          ; preds = %entry
  %0 = load ptr, ptr @stderr, align 8
  %conv = sext i32 %start to i64
  %conv2 = sext i32 %end to i64
  %call = tail call i32 (ptr, ptr, ...) @fprintf(ptr noundef %0, ptr noundef nonnull @.str.3, i64 noundef %conv, i64 noundef %conv2) #12
  tail call void @exit(i32 noundef 5) #11
  unreachable

if.end:                                           ; preds = %entry
  %error = getelementptr inbounds i8, ptr %norm, i64 56
  %1 = load ptr, ptr %error, align 8
  %cmp3.not = icmp eq ptr %1, null
  br i1 %cmp3.not, label %if.end8, label %if.then4

if.then4:                                         ; preds = %if.end
  %2 = load ptr, ptr @stderr, align 8
  %conv5 = sext i32 %start to i64
  %call7 = tail call i32 (ptr, ptr, ...) @fprintf(ptr noundef %2, ptr noundef nonnull @.str.4, i64 noundef %conv5, ptr noundef nonnull %1) #12
  tail call void @exit(i32 noundef 3) #11
  unreachable

if.end8:                                          ; preds = %if.end
  tail call void @_ZN6icu_759ExtraData14writeExtraDataEiRNS_4NormE(ptr noundef nonnull align 8 dereferenceable(888) %this, i32 noundef %start, ptr noundef nonnull align 8 dereferenceable(64) %norm)
  ret void
}